target datalayout = "e-m:e-p270:32:32-p271:32:32-p272:64:64-i64:64-i128:128-f80:128-n8:16:32:64-S128"
target triple = "x86_64-pc-linux-gnu"

%"class.ExclusionChecker::Impl" = type <{ ptr, %"class.gmx::ArrayRef", %"class.std::function", i32, [4 x i8] }>
%"class.gmx::ArrayRef" = type { %"struct.gmx::ArrayRefIter", %"struct.gmx::ArrayRefIter" }
%"struct.gmx::ArrayRefIter" = type { ptr }
%"class.std::function" = type { %"class.std::_Function_base", ptr }
%"class.std::_Function_base" = type { %"union.std::_Any_data", ptr }
%"union.std::_Any_data" = type { %"union.std::_Nocopy_types" }
%"union.std::_Nocopy_types" = type { { i64, i64 } }
%struct.t_commrec = type <{ i8, [3 x i8], i32, i32, i32, i32, [4 x i8], ptr, ptr, i32, [4 x i8], ptr, i32, i32, %struct.gmx_nodecomm_t, %"class.std::unique_ptr.69", %"class.std::unique_ptr.77", ptr, ptr, i32, [4 x i8] }>
%struct.gmx_nodecomm_t = type { i8, ptr, i32, ptr }
%"class.std::unique_ptr.69" = type { %"struct.std::__uniq_ptr_data.70" }
%"struct.std::__uniq_ptr_data.70" = type { %"class.std::__uniq_ptr_impl.71" }
%"class.std::__uniq_ptr_impl.71" = type { %"class.std::tuple.72" }
%"class.std::tuple.72" = type { %"struct.std::_Tuple_impl.73" }
%"struct.std::_Tuple_impl.73" = type { %"struct.std::_Head_base.76" }
%"struct.std::_Head_base.76" = type { ptr }
%"class.std::unique_ptr.77" = type { %"struct.std::__uniq_ptr_data.78" }
%"struct.std::__uniq_ptr_data.78" = type { %"class.std::__uniq_ptr_impl.79" }
%"class.std::__uniq_ptr_impl.79" = type { %"class.std::tuple.80" }
%"class.std::tuple.80" = type { %"struct.std::_Tuple_impl.81" }
%"struct.std::_Tuple_impl.81" = type { %"struct.std::_Head_base.84" }
%"struct.std::_Head_base.84" = type { ptr }

@.str.2 = private unnamed_addr constant [132 x i8] c"generated/home/dtcxzyw/WorkSpace/Projects/compilers/llvm-opt-benchmark/bench/gromacs/gromacs/src/gromacs/nbnxm/exclusionchecker.cpp\00", align 1

; Function Attrs: mustprogress uwtable
define void @_ZN16ExclusionChecker4Impl5checkEi(ptr noundef nonnull align 8 dereferenceable(60) %0, i32 noundef %1) #0 align 2 {
  %3 = alloca ptr, align 8
  %4 = alloca i32, align 4
  store ptr %0, ptr %3, align 8, !tbaa !4
  store i32 %1, ptr %4, align 4, !tbaa !27
  %5 = load ptr, ptr %3, align 8
  %6 = load i32, ptr %4, align 4, !tbaa !27
  %7 = getelementptr inbounds nuw %"class.ExclusionChecker::Impl", ptr %5, i32 0, i32 3
  %8 = load i32, ptr %7, align 8, !tbaa !21
  %9 = icmp ne i32 %6, %8
  br i1 %9, label %10, label %33

10:                                               ; preds = %2
  %11 = getelementptr inbounds nuw %"class.ExclusionChecker::Impl", ptr %5, i32 0, i32 0
  %12 = load ptr, ptr %11, align 8, !tbaa !13
  %13 = getelementptr inbounds nuw %struct.t_commrec, ptr %12, i32 0, i32 8
  %14 = load ptr, ptr %13, align 8, !tbaa !178
  %15 = getelementptr inbounds nuw %"class.ExclusionChecker::Impl", ptr %5, i32 0, i32 0
  %16 = load ptr, ptr %15, align 8, !tbaa !13
  %17 = getelementptr inbounds nuw %struct.t_commrec, ptr %16, i32 0, i32 13
  %18 = load i32, ptr %17, align 4, !tbaa !179
  %19 = icmp eq i32 %18, 0
  br i1 %19, label %27, label %20

20:                                               ; preds = %10
  %21 = getelementptr inbounds nuw %"class.ExclusionChecker::Impl", ptr %5, i32 0, i32 0
  %22 = load ptr, ptr %21, align 8, !tbaa !13
  %23 = getelementptr inbounds nuw %struct.t_commrec, ptr %22, i32 0, i32 12
  %24 = load i32, ptr %23, align 8, !tbaa !180
  %25 = icmp sgt i32 %24, 1
  %26 = xor i1 %25, true
  br label %27

27:                                               ; preds = %20, %10
  %28 = phi i1 [ true, %10 ], [ %26, %20 ]
  %29 = getelementptr inbounds nuw %"class.ExclusionChecker::Impl", ptr %5, i32 0, i32 3
  %30 = load i32, ptr %29, align 8, !tbaa !21
  %31 = load i32, ptr %4, align 4, !tbaa !27
  %32 = sub nsw i32 %30, %31
  call void (i32, ptr, i32, ptr, i1, ptr, ...) @_Z20gmx_fatal_collectiveiPKciP10tmpi_comm_bS0_z(i32 noundef 0, ptr noundef @.str.2, i32 noundef 195, ptr noundef %14, i1 noundef zeroext %28, ptr noundef @.str.3, i32 noundef %32) #16
  unreachable

33:                                               ; preds = %2
  ret void
}