; Function Attrs: mustprogress uwtable
define void @_ZN16ExclusionChecker4Impl5checkEi(ptr noundef nonnull readonly align 8 captures(none) dereferenceable(60) %0, i32 noundef %1) local_unnamed_addr #6 align 2 {
  %3 = getelementptr inbounds nuw i8, ptr %0, i64 56
  %4 = load i32, ptr %3, align 8, !tbaa !55
  %.not = icmp eq i32 %1, %4
  br i1 %.not, label %19, label %5

5:                                                ; preds = %2
  %6 = load ptr, ptr %0, align 8, !tbaa !4
  %7 = getelementptr inbounds nuw i8, ptr %6, i64 32
  %8 = load ptr, ptr %7, align 8, !tbaa !98
  %9 = getelementptr inbounds nuw i8, ptr %6, i64 60
  %10 = load i32, ptr %9, align 4, !tbaa !99
  %11 = icmp eq i32 %10, 0
  br i1 %11, label %16, label %12

12:                                               ; preds = %5
  %13 = getelementptr inbounds nuw i8, ptr %6, i64 56
  %14 = load i32, ptr %13, align 8, !tbaa !100
  %15 = icmp slt i32 %14, 2
  br label %16

16:                                               ; preds = %12, %5
  %17 = phi i1 [ true, %5 ], [ %15, %12 ]
  %18 = sub nsw i32 %4, %1
  tail call void (i32, ptr, i32, ptr, i1, ptr, ...) @_Z20gmx_fatal_collectiveiPKciP10tmpi_comm_bS0_z(i32 noundef 0, ptr noundef nonnull @.str.2, i32 noundef 195, ptr noundef %8, i1 noundef zeroext %17, ptr noundef nonnull @.str.3, i32 noundef %18) #18
  unreachable

19:                                               ; preds = %2
  ret void
}